; Function Attrs: nofree nounwind uwtable
define internal range(i32 0, 2) i32 @MyWriter(ptr nocapture noundef %0, i64 noundef %1, ptr nocapture noundef readonly %2) #3 {
  %.not = icmp eq i64 %1, 0
  br i1 %.not, label %10, label %4

4:                                                ; preds = %3
  %5 = getelementptr inbounds i8, ptr %2, i64 104
  %6 = load ptr, ptr %5, align 8
  %7 = tail call i64 @fwrite(ptr noundef %0, i64 noundef %1, i64 noundef 1, ptr noundef %6)
  %8 = icmp eq i64 %7, 1
  %9 = zext i1 %8 to i32
  br label %10

10:                                               ; preds = %3, %4
  %11 = phi i32 [ %9, %4 ], [ 1, %3 ]
  ret i32 %11
}